; Function Attrs: nounwind uwtable
define ptr @l_Lake_mkMessageStringCore(i8 noundef zeroext %0, ptr noundef %1, ptr noundef %2, ptr noundef %3, ptr noundef %4, ptr noundef %5, i8 noundef zeroext %6) local_unnamed_addr #0 {
  %8 = load ptr, ptr @l_Lake_mkParserErrorMessage___closed__1, align 8, !tbaa !4
  %9 = icmp eq ptr %2, %8
  br i1 %9, label %lean_string_dec_eq.exit.thread28, label %10

10:                                               ; preds = %7
  %11 = getelementptr i8, ptr %2, i64 8
  %.val.i.i = load i64, ptr %11, align 8, !tbaa !12
  %12 = getelementptr i8, ptr %8, i64 8
  %.val7.i.i = load i64, ptr %12, align 8, !tbaa !12
  %13 = icmp eq i64 %.val.i.i, %.val7.i.i
  br i1 %13, label %lean_string_dec_eq.exit, label %lean_string_dec_eq.exit.thread

lean_string_dec_eq.exit:                          ; preds = %10
  %14 = tail call zeroext i1 @lean_string_eq_cold(ptr noundef nonnull %2, ptr noundef nonnull %8) #3
  br i1 %14, label %lean_string_dec_eq.exit.thread28, label %lean_string_dec_eq.exit.thread

lean_string_dec_eq.exit.thread:                   ; preds = %10, %lean_string_dec_eq.exit
  %15 = load ptr, ptr @l_Lake_mkMessageStringCore___closed__1, align 8, !tbaa !4
  %16 = tail call ptr @lean_string_append(ptr noundef nonnull %2, ptr noundef %15) #3
  %17 = tail call ptr @lean_string_append(ptr noundef %16, ptr noundef %3) #3
  %18 = ptrtoint ptr %3 to i64
  %19 = and i64 %18, 1
  %.not = icmp eq i64 %19, 0
  br i1 %.not, label %20, label %lean_dec.exit25

20:                                               ; preds = %lean_string_dec_eq.exit.thread
  %21 = load i32, ptr %3, align 4, !tbaa !8
  %22 = icmp sgt i32 %21, 1
  br i1 %22, label %23, label %25, !prof !11

23:                                               ; preds = %20
  %24 = add nsw i32 %21, -1
  store i32 %24, ptr %3, align 4, !tbaa !8
  br label %lean_dec.exit25

25:                                               ; preds = %20
  %.not.i = icmp eq i32 %21, 0
  br i1 %.not.i, label %lean_dec.exit25, label %26

26:                                               ; preds = %25
  tail call void @lean_dec_ref_cold(ptr noundef nonnull %3) #3
  br label %lean_dec.exit25

lean_string_dec_eq.exit.thread28:                 ; preds = %7, %lean_string_dec_eq.exit
  %27 = ptrtoint ptr %2 to i64
  %28 = and i64 %27, 1
  %.not29 = icmp eq i64 %28, 0
  br i1 %.not29, label %29, label %lean_dec.exit25

29:                                               ; preds = %lean_string_dec_eq.exit.thread28
  %30 = load i32, ptr %2, align 4, !tbaa !8
  %31 = icmp sgt i32 %30, 1
  br i1 %31, label %32, label %34, !prof !11

32:                                               ; preds = %29
  %33 = add nsw i32 %30, -1
  store i32 %33, ptr %2, align 4, !tbaa !8
  br label %lean_dec.exit25

34:                                               ; preds = %29
  %.not.i26 = icmp eq i32 %30, 0
  br i1 %.not.i26, label %lean_dec.exit25, label %35

35:                                               ; preds = %34
  tail call void @lean_dec_ref_cold(ptr noundef nonnull %2) #3
  br label %lean_dec.exit25

lean_dec.exit25:                                  ; preds = %lean_string_dec_eq.exit.thread28, %32, %34, %35, %lean_string_dec_eq.exit.thread, %23, %25, %26
  %.sink = phi ptr [ %17, %26 ], [ %17, %25 ], [ %17, %23 ], [ %17, %lean_string_dec_eq.exit.thread ], [ %3, %35 ], [ %3, %34 ], [ %3, %32 ], [ %3, %lean_string_dec_eq.exit.thread28 ]
  %36 = tail call ptr @l_Lake_mkMessageStringCore___lambda__3(i8 noundef zeroext %0, i8 noundef zeroext %6, ptr noundef %1, ptr noundef %4, ptr noundef %5, ptr noundef %.sink, ptr nonnull poison)
  ret ptr %36
}